; Function Attrs: nounwind uwtable
define internal fastcc noalias nonnull ptr @_init_l_Lean_Elab_Tactic_BVDecide_Frontend_Normalize_enumsPass___elambda__1___lambda__1___closed__2() unnamed_addr #1 {
  %1 = load ptr, ptr @l_Lean_Elab_Tactic_BVDecide_Frontend_Normalize_initFn____x40_Lean_Elab_Tactic_BVDecide_Frontend_Normalize_Enums___hyg_3445____lambda__1___closed__4, align 8, !tbaa !11
  %2 = load ptr, ptr @l_Lean_Elab_Tactic_BVDecide_Frontend_Normalize_initFn____x40_Lean_Elab_Tactic_BVDecide_Frontend_Normalize_Enums___hyg_3445____lambda__1___closed__7, align 8, !tbaa !11
  tail call void @lean_inc_heartbeat() #7
  %3 = tail call noalias ptr @mi_malloc_small(i64 noundef 40) #7
  %4 = icmp eq ptr %3, null
  br i1 %4, label %5, label %lean_alloc_ctor.exit

5:                                                ; preds = %0
  tail call void @lean_internal_panic_out_of_memory() #6
  unreachable

lean_alloc_ctor.exit:                             ; preds = %0
  %6 = getelementptr inbounds nuw i8, ptr %3, i64 4
  store i32 1, ptr %3, align 4, !tbaa !4
  store i32 262184, ptr %6, align 4
  %7 = getelementptr inbounds nuw i8, ptr %3, i64 8
  store ptr %1, ptr %7, align 8, !tbaa !11
  %8 = getelementptr inbounds nuw i8, ptr %3, i64 16
  store ptr %1, ptr %8, align 8, !tbaa !11
  %9 = getelementptr inbounds nuw i8, ptr %3, i64 24
  store ptr %1, ptr %9, align 8, !tbaa !11
  %10 = getelementptr inbounds nuw i8, ptr %3, i64 32
  store ptr %2, ptr %10, align 8, !tbaa !11
  ret ptr %3
}